target datalayout = "e-m:e-p270:32:32-p271:32:32-p272:64:64-i64:64-i128:128-f80:128-n8:16:32:64-S128"
target triple = "x86_64-pc-linux-gnu"

%struct._value_string_ext = type { ptr, i32, i32, ptr, ptr }

@rtp_midi_note_values_ext = internal global %struct._value_string_ext { ptr @_try_val_to_str_ext_init, i32 0, i32 128, ptr @rtp_midi_note_values, ptr @.str.671 }, align 8
@hf_rtp_midi_sysex_common_tuning = internal global i32 0, align 4
@hf_rtp_midi_sysex_common_tune_program = internal global i32 0, align 4
@hf_rtp_midi_sysex_common_tune_name = internal global i32 0, align 4
@hf_rtp_midi_sysex_common_tune_freq = internal global i32 0, align 4
@hf_rtp_midi_sysex_common_tune_checksum = internal global i32 0, align 4
@hf_rtp_midi_sysex_common_tune_changes = internal global i32 0, align 4
@hf_rtp_midi_sysex_common_tune_note = internal global i32 0, align 4
@ett_rtp_midi_sysex_common_tune_note = internal global i32 0, align 4
@rtp_midi_unknown_value_dec = internal constant [18 x i8] c"unknown value: %d\00", align 16
@.str.1642 = private unnamed_addr constant [9 x i8] c"Note: %s\00", align 1

; Function Attrs: null_pointer_is_valid sspstrong uwtable
define internal i32 @decode_sysex_common_tuning(ptr noundef %0, ptr noundef %1, ptr noundef %2, i32 noundef %3, i32 noundef %4) #0 {
  %6 = alloca i32, align 4
  %7 = alloca ptr, align 8
  %8 = alloca ptr, align 8
  %9 = alloca ptr, align 8
  %10 = alloca i32, align 4
  %11 = alloca i32, align 4
  %12 = alloca ptr, align 8
  %13 = alloca ptr, align 8
  %14 = alloca i8, align 1
  %15 = alloca i32, align 4
  %16 = alloca i32, align 4
  %17 = alloca i32, align 4
  %18 = alloca i8, align 1
  %19 = alloca i8, align 1
  store ptr %0, ptr %7, align 8
  store ptr %1, ptr %8, align 8
  store ptr %2, ptr %9, align 8
  store i32 %3, ptr %10, align 4
  store i32 %4, ptr %11, align 4
  call void @llvm.lifetime.start.p0(i64 8, ptr %12) #3
  call void @llvm.lifetime.start.p0(i64 8, ptr %13) #3
  call void @llvm.lifetime.start.p0(i64 1, ptr %14) #3
  call void @llvm.lifetime.start.p0(i64 4, ptr %15) #3
  %20 = load i32, ptr %10, align 4
  store i32 %20, ptr %15, align 4
  call void @llvm.lifetime.start.p0(i64 4, ptr %16) #3
  %21 = load i32, ptr %11, align 4
  %22 = icmp ult i32 %21, 1
  br i1 %22, label %23, label %24

23:                                               ; preds = %5
  store i32 0, ptr %6, align 4
  store i32 1, ptr %17, align 4
  br label %160

24:                                               ; preds = %5
  %25 = load ptr, ptr %7, align 8
  %26 = load i32, ptr %10, align 4
  %27 = call zeroext i8 @tvb_get_uint8(ptr noundef %25, i32 noundef %26)
  store i8 %27, ptr %14, align 1
  %28 = load ptr, ptr %9, align 8
  %29 = load i32, ptr @hf_rtp_midi_sysex_common_tuning, align 4
  %30 = load ptr, ptr %7, align 8
  %31 = load i32, ptr %10, align 4
  %32 = call ptr @proto_tree_add_item(ptr noundef %28, i32 noundef %29, ptr noundef %30, i32 noundef %31, i32 noundef 1, i32 noundef 0)
  %33 = load i32, ptr %10, align 4
  %34 = add i32 %33, 1
  store i32 %34, ptr %10, align 4
  %35 = load i8, ptr %14, align 1
  %36 = zext i8 %35 to i32
  %37 = icmp eq i32 %36, 0
  br i1 %37, label %38, label %46

38:                                               ; preds = %24
  %39 = load ptr, ptr %9, align 8
  %40 = load i32, ptr @hf_rtp_midi_sysex_common_tune_program, align 4
  %41 = load ptr, ptr %7, align 8
  %42 = load i32, ptr %10, align 4
  %43 = call ptr @proto_tree_add_item(ptr noundef %39, i32 noundef %40, ptr noundef %41, i32 noundef %42, i32 noundef 1, i32 noundef 0)
  %44 = load i32, ptr %10, align 4
  %45 = add i32 %44, 1
  store i32 %45, ptr %10, align 4
  br label %156

46:                                               ; preds = %24
  %47 = load i8, ptr %14, align 1
  %48 = zext i8 %47 to i32
  %49 = icmp eq i32 %48, 1
  br i1 %49, label %50, label %96

50:                                               ; preds = %46
  %51 = load ptr, ptr %9, align 8
  %52 = load i32, ptr @hf_rtp_midi_sysex_common_tune_program, align 4
  %53 = load ptr, ptr %7, align 8
  %54 = load i32, ptr %10, align 4
  %55 = call ptr @proto_tree_add_item(ptr noundef %51, i32 noundef %52, ptr noundef %53, i32 noundef %54, i32 noundef 1, i32 noundef 0)
  %56 = load i32, ptr %10, align 4
  %57 = add i32 %56, 1
  store i32 %57, ptr %10, align 4
  %58 = load ptr, ptr %9, align 8
  %59 = load i32, ptr @hf_rtp_midi_sysex_common_tune_name, align 4
  %60 = load ptr, ptr %7, align 8
  %61 = load i32, ptr %10, align 4
  %62 = call ptr @proto_tree_add_item(ptr noundef %58, i32 noundef %59, ptr noundef %60, i32 noundef %61, i32 noundef 16, i32 noundef 0)
  %63 = load i32, ptr %10, align 4
  %64 = add i32 %63, 16
  store i32 %64, ptr %10, align 4
  store i32 0, ptr %16, align 4
  br label %65

65:                                               ; preds = %84, %50
  %66 = load i32, ptr %16, align 4
  %67 = icmp ult i32 %66, 128
  br i1 %67, label %68, label %87

68:                                               ; preds = %65
  %69 = load i32, ptr %16, align 4
  %70 = call ptr @val_to_str_ext(i32 noundef %69, ptr noundef @rtp_midi_note_values_ext, ptr noundef @rtp_midi_unknown_value_dec)
  store ptr %70, ptr %13, align 8
  %71 = load ptr, ptr %9, align 8
  %72 = load ptr, ptr %7, align 8
  %73 = load i32, ptr %10, align 4
  %74 = load i32, ptr @ett_rtp_midi_sysex_common_tune_note, align 4
  %75 = load ptr, ptr %13, align 8
  %76 = call ptr (ptr, ptr, i32, i32, i32, ptr, ptr, ...) @proto_tree_add_subtree_format(ptr noundef %71, ptr noundef %72, i32 noundef %73, i32 noundef 3, i32 noundef %74, ptr noundef null, ptr noundef @.str.1642, ptr noundef %75)
  store ptr %76, ptr %12, align 8
  %77 = load ptr, ptr %12, align 8
  %78 = load i32, ptr @hf_rtp_midi_sysex_common_tune_freq, align 4
  %79 = load ptr, ptr %7, align 8
  %80 = load i32, ptr %10, align 4
  %81 = call ptr @proto_tree_add_item(ptr noundef %77, i32 noundef %78, ptr noundef %79, i32 noundef %80, i32 noundef 3, i32 noundef 0)
  %82 = load i32, ptr %10, align 4
  %83 = add i32 %82, 3
  store i32 %83, ptr %10, align 4
  br label %84

84:                                               ; preds = %68
  %85 = load i32, ptr %16, align 4
  %86 = add i32 %85, 1
  store i32 %86, ptr %16, align 4
  br label %65, !llvm.loop !16

87:                                               ; preds = %65
  %88 = load ptr, ptr %9, align 8
  %89 = load ptr, ptr %7, align 8
  %90 = load i32, ptr %10, align 4
  %91 = load i32, ptr @hf_rtp_midi_sysex_common_tune_checksum, align 4
  %92 = load ptr, ptr %8, align 8
  %93 = call ptr @proto_tree_add_checksum(ptr noundef %88, ptr noundef %89, i32 noundef %90, i32 noundef %91, i32 noundef -1, ptr noundef null, ptr noundef %92, i32 noundef 0, i32 noundef 0, i32 noundef 0)
  %94 = load i32, ptr %10, align 4
  %95 = add i32 %94, 1
  store i32 %95, ptr %10, align 4
  br label %155

96:                                               ; preds = %46
  %97 = load i8, ptr %14, align 1
  %98 = zext i8 %97 to i32
  %99 = icmp eq i32 %98, 2
  br i1 %99, label %100, label %154

100:                                              ; preds = %96
  call void @llvm.lifetime.start.p0(i64 1, ptr %18) #3
  %101 = load ptr, ptr %9, align 8
  %102 = load i32, ptr @hf_rtp_midi_sysex_common_tune_program, align 4
  %103 = load ptr, ptr %7, align 8
  %104 = load i32, ptr %10, align 4
  %105 = call ptr @proto_tree_add_item(ptr noundef %101, i32 noundef %102, ptr noundef %103, i32 noundef %104, i32 noundef 1, i32 noundef 0)
  %106 = load i32, ptr %10, align 4
  %107 = add i32 %106, 1
  store i32 %107, ptr %10, align 4
  %108 = load ptr, ptr %7, align 8
  %109 = load i32, ptr %10, align 4
  %110 = call zeroext i8 @tvb_get_uint8(ptr noundef %108, i32 noundef %109)
  store i8 %110, ptr %18, align 1
  %111 = load ptr, ptr %9, align 8
  %112 = load i32, ptr @hf_rtp_midi_sysex_common_tune_changes, align 4
  %113 = load ptr, ptr %7, align 8
  %114 = load i32, ptr %10, align 4
  %115 = call ptr @proto_tree_add_item(ptr noundef %111, i32 noundef %112, ptr noundef %113, i32 noundef %114, i32 noundef 1, i32 noundef 0)
  %116 = load i32, ptr %10, align 4
  %117 = add i32 %116, 1
  store i32 %117, ptr %10, align 4
  store i32 0, ptr %16, align 4
  br label %118

118:                                              ; preds = %150, %100
  %119 = load i32, ptr %16, align 4
  %120 = load i8, ptr %18, align 1
  %121 = zext i8 %120 to i32
  %122 = icmp ult i32 %119, %121
  br i1 %122, label %123, label %153

123:                                              ; preds = %118
  call void @llvm.lifetime.start.p0(i64 1, ptr %19) #3
  %124 = load ptr, ptr %7, align 8
  %125 = load i32, ptr %10, align 4
  %126 = call zeroext i8 @tvb_get_uint8(ptr noundef %124, i32 noundef %125)
  store i8 %126, ptr %19, align 1
  %127 = load i8, ptr %19, align 1
  %128 = zext i8 %127 to i32
  %129 = call ptr @val_to_str_ext(i32 noundef %128, ptr noundef @rtp_midi_note_values_ext, ptr noundef @rtp_midi_unknown_value_dec)
  store ptr %129, ptr %13, align 8
  %130 = load ptr, ptr %9, align 8
  %131 = load ptr, ptr %7, align 8
  %132 = load i32, ptr %10, align 4
  %133 = load i32, ptr @ett_rtp_midi_sysex_common_tune_note, align 4
  %134 = load ptr, ptr %13, align 8
  %135 = call ptr (ptr, ptr, i32, i32, i32, ptr, ptr, ...) @proto_tree_add_subtree_format(ptr noundef %130, ptr noundef %131, i32 noundef %132, i32 noundef 3, i32 noundef %133, ptr noundef null, ptr noundef @.str.1642, ptr noundef %134)
  store ptr %135, ptr %12, align 8
  %136 = load ptr, ptr %12, align 8
  %137 = load i32, ptr @hf_rtp_midi_sysex_common_tune_note, align 4
  %138 = load ptr, ptr %7, align 8
  %139 = load i32, ptr %10, align 4
  %140 = call ptr @proto_tree_add_item(ptr noundef %136, i32 noundef %137, ptr noundef %138, i32 noundef %139, i32 noundef 1, i32 noundef 0)
  %141 = load i32, ptr %10, align 4
  %142 = add i32 %141, 1
  store i32 %142, ptr %10, align 4
  %143 = load ptr, ptr %12, align 8
  %144 = load i32, ptr @hf_rtp_midi_sysex_common_tune_freq, align 4
  %145 = load ptr, ptr %7, align 8
  %146 = load i32, ptr %10, align 4
  %147 = call ptr @proto_tree_add_item(ptr noundef %143, i32 noundef %144, ptr noundef %145, i32 noundef %146, i32 noundef 3, i32 noundef 0)
  %148 = load i32, ptr %10, align 4
  %149 = add i32 %148, 3
  store i32 %149, ptr %10, align 4
  call void @llvm.lifetime.end.p0(i64 1, ptr %19) #3
  br label %150

150:                                              ; preds = %123
  %151 = load i32, ptr %16, align 4
  %152 = add i32 %151, 1
  store i32 %152, ptr %16, align 4
  br label %118, !llvm.loop !17

153:                                              ; preds = %118
  call void @llvm.lifetime.end.p0(i64 1, ptr %18) #3
  br label %154

154:                                              ; preds = %153, %96
  br label %155

155:                                              ; preds = %154, %87
  br label %156

156:                                              ; preds = %155, %38
  %157 = load i32, ptr %10, align 4
  %158 = load i32, ptr %15, align 4
  %159 = sub i32 %157, %158
  store i32 %159, ptr %6, align 4
  store i32 1, ptr %17, align 4
  br label %160

160:                                              ; preds = %156, %23
  call void @llvm.lifetime.end.p0(i64 4, ptr %16) #3
  call void @llvm.lifetime.end.p0(i64 4, ptr %15) #3
  call void @llvm.lifetime.end.p0(i64 1, ptr %14) #3
  call void @llvm.lifetime.end.p0(i64 8, ptr %13) #3
  call void @llvm.lifetime.end.p0(i64 8, ptr %12) #3
  %161 = load i32, ptr %6, align 4
  ret i32 %161
}