; Function Attrs: null_pointer_is_valid sspstrong uwtable
define internal fastcc i32 @decode_sysex_common_tuning(ptr noundef %0, ptr noundef %1, ptr noundef %2, i32 noundef %3, i32 noundef range(i32 0, 2147483645) %4) unnamed_addr #0 {
  %6 = icmp eq i32 %4, 0
  br i1 %6, label %55, label %7

7:                                                ; preds = %5
  %8 = tail call zeroext i8 @tvb_get_uint8(ptr noundef %0, i32 noundef %3)
  %9 = load i32, ptr @hf_rtp_midi_sysex_common_tuning, align 4
  %10 = tail call ptr @proto_tree_add_item(ptr noundef %2, i32 noundef %9, ptr noundef %0, i32 noundef %3, i32 noundef 1, i32 noundef 0)
  %11 = add i32 %3, 1
  switch i8 %8, label %.loopexit [
    i8 0, label %12
    i8 1, label %16
    i8 2, label %35
  ]

12:                                               ; preds = %7
  %13 = load i32, ptr @hf_rtp_midi_sysex_common_tune_program, align 4
  %14 = tail call ptr @proto_tree_add_item(ptr noundef %2, i32 noundef %13, ptr noundef %0, i32 noundef %11, i32 noundef 1, i32 noundef 0)
  %15 = add i32 %3, 2
  br label %.loopexit

16:                                               ; preds = %7
  %17 = load i32, ptr @hf_rtp_midi_sysex_common_tune_program, align 4
  %18 = tail call ptr @proto_tree_add_item(ptr noundef %2, i32 noundef %17, ptr noundef %0, i32 noundef %11, i32 noundef 1, i32 noundef 0)
  %19 = add i32 %3, 2
  %20 = load i32, ptr @hf_rtp_midi_sysex_common_tune_name, align 4
  %21 = tail call ptr @proto_tree_add_item(ptr noundef %2, i32 noundef %20, ptr noundef %0, i32 noundef %19, i32 noundef 16, i32 noundef 0)
  %22 = add i32 %3, 18
  br label %23

23:                                               ; preds = %16, %23
  %.178 = phi i32 [ %22, %16 ], [ %29, %23 ]
  %.07077 = phi i32 [ 0, %16 ], [ %30, %23 ]
  %24 = tail call ptr @val_to_str_ext(i32 noundef %.07077, ptr noundef nonnull @rtp_midi_note_values_ext, ptr noundef nonnull @rtp_midi_unknown_value_dec)
  %25 = load i32, ptr @ett_rtp_midi_sysex_common_tune_note, align 4
  %26 = tail call ptr (ptr, ptr, i32, i32, i32, ptr, ptr, ...) @proto_tree_add_subtree_format(ptr noundef %2, ptr noundef %0, i32 noundef %.178, i32 noundef 3, i32 noundef %25, ptr noundef null, ptr noundef nonnull @.str.1642, ptr noundef %24)
  %27 = load i32, ptr @hf_rtp_midi_sysex_common_tune_freq, align 4
  %28 = tail call ptr @proto_tree_add_item(ptr noundef %26, i32 noundef %27, ptr noundef %0, i32 noundef %.178, i32 noundef 3, i32 noundef 0)
  %29 = add i32 %.178, 3
  %30 = add nuw nsw i32 %.07077, 1
  %exitcond79.not = icmp eq i32 %30, 128
  br i1 %exitcond79.not, label %31, label %23, !llvm.loop !19

31:                                               ; preds = %23
  %32 = load i32, ptr @hf_rtp_midi_sysex_common_tune_checksum, align 4
  %33 = tail call ptr @proto_tree_add_checksum(ptr noundef %2, ptr noundef %0, i32 noundef %29, i32 noundef %32, i32 noundef -1, ptr noundef null, ptr noundef %1, i32 noundef 0, i32 noundef 0, i32 noundef 0)
  %34 = add i32 %.178, 4
  br label %.loopexit

35:                                               ; preds = %7
  %36 = load i32, ptr @hf_rtp_midi_sysex_common_tune_program, align 4
  %37 = tail call ptr @proto_tree_add_item(ptr noundef %2, i32 noundef %36, ptr noundef %0, i32 noundef %11, i32 noundef 1, i32 noundef 0)
  %38 = add i32 %3, 2
  %39 = tail call zeroext i8 @tvb_get_uint8(ptr noundef %0, i32 noundef %38)
  %40 = load i32, ptr @hf_rtp_midi_sysex_common_tune_changes, align 4
  %41 = tail call ptr @proto_tree_add_item(ptr noundef %2, i32 noundef %40, ptr noundef %0, i32 noundef %38, i32 noundef 1, i32 noundef 0)
  %42 = zext i8 %39 to i32
  %.273 = add i32 %3, 3
  %.not = icmp eq i8 %39, 0
  br i1 %.not, label %.loopexit, label %.lr.ph

.lr.ph:                                           ; preds = %35, %.lr.ph
  %.276 = phi i32 [ %.2, %.lr.ph ], [ %.273, %35 ]
  %.2.in75 = phi i32 [ %50, %.lr.ph ], [ %3, %35 ]
  %.17174 = phi i32 [ %53, %.lr.ph ], [ 0, %35 ]
  %43 = tail call zeroext i8 @tvb_get_uint8(ptr noundef %0, i32 noundef %.276)
  %44 = zext i8 %43 to i32
  %45 = tail call ptr @val_to_str_ext(i32 noundef %44, ptr noundef nonnull @rtp_midi_note_values_ext, ptr noundef nonnull @rtp_midi_unknown_value_dec)
  %46 = load i32, ptr @ett_rtp_midi_sysex_common_tune_note, align 4
  %47 = tail call ptr (ptr, ptr, i32, i32, i32, ptr, ptr, ...) @proto_tree_add_subtree_format(ptr noundef %2, ptr noundef %0, i32 noundef %.276, i32 noundef 3, i32 noundef %46, ptr noundef null, ptr noundef nonnull @.str.1642, ptr noundef %45)
  %48 = load i32, ptr @hf_rtp_midi_sysex_common_tune_note, align 4
  %49 = tail call ptr @proto_tree_add_item(ptr noundef %47, i32 noundef %48, ptr noundef %0, i32 noundef %.276, i32 noundef 1, i32 noundef 0)
  %50 = add i32 %.2.in75, 4
  %51 = load i32, ptr @hf_rtp_midi_sysex_common_tune_freq, align 4
  %52 = tail call ptr @proto_tree_add_item(ptr noundef %47, i32 noundef %51, ptr noundef %0, i32 noundef %50, i32 noundef 3, i32 noundef 0)
  %53 = add nuw nsw i32 %.17174, 1
  %.2 = add i32 %.2.in75, 7
  %exitcond.not = icmp eq i32 %53, %42
  br i1 %exitcond.not, label %.loopexit, label %.lr.ph, !llvm.loop !20

.loopexit:                                        ; preds = %.lr.ph, %35, %7, %31, %12
  %.069 = phi i32 [ %15, %12 ], [ %34, %31 ], [ %11, %7 ], [ %.273, %35 ], [ %.2, %.lr.ph ]
  %54 = sub i32 %.069, %3
  br label %55

55:                                               ; preds = %5, %.loopexit
  %.0 = phi i32 [ %54, %.loopexit ], [ 0, %5 ]
  ret i32 %.0
}